; Function Attrs: mustprogress uwtable
define noundef signext i8 @_ZNK5arrow3ipc7Message16metadata_versionEv(ptr noundef nonnull readonly align 8 captures(none) dereferenceable(8) %0) local_unnamed_addr #0 align 2 {
  %2 = load ptr, ptr %0, align 8, !tbaa !15
  %3 = getelementptr inbounds nuw i8, ptr %2, i64 16
  %4 = load ptr, ptr %3, align 8, !tbaa !72
  %5 = load i32, ptr %4, align 4, !tbaa !23
  %6 = sext i32 %5 to i64
  %7 = sub nsw i64 0, %6
  %8 = getelementptr inbounds i8, ptr %4, i64 %7
  %9 = load i16, ptr %8, align 2, !tbaa !77
  %10 = icmp ugt i16 %9, 4
  br i1 %10, label %_ZNK22arrow_vendored_private11flatbuffers5Table22GetOptionalFieldOffsetEt.exit.i.i.i, label %_ZNK5arrow3ipc7Message11MessageImpl7versionEv.exit

_ZNK22arrow_vendored_private11flatbuffers5Table22GetOptionalFieldOffsetEt.exit.i.i.i: ; preds = %1
  %11 = getelementptr inbounds nuw i8, ptr %8, i64 4
  %12 = load i16, ptr %11, align 2, !tbaa !77
  %.not.i.i.i = icmp eq i16 %12, 0
  br i1 %.not.i.i.i, label %_ZNK5arrow3ipc7Message11MessageImpl7versionEv.exit, label %13

13:                                               ; preds = %_ZNK22arrow_vendored_private11flatbuffers5Table22GetOptionalFieldOffsetEt.exit.i.i.i
  %14 = zext i16 %12 to i64
  %15 = getelementptr inbounds nuw i8, ptr %4, i64 %14
  %16 = load i16, ptr %15, align 2, !tbaa !77
  br label %_ZNK5arrow3ipc7Message11MessageImpl7versionEv.exit

_ZNK5arrow3ipc7Message11MessageImpl7versionEv.exit: ; preds = %1, %_ZNK22arrow_vendored_private11flatbuffers5Table22GetOptionalFieldOffsetEt.exit.i.i.i, %13
  %17 = phi i16 [ %16, %13 ], [ 0, %_ZNK22arrow_vendored_private11flatbuffers5Table22GetOptionalFieldOffsetEt.exit.i.i.i ], [ 0, %1 ]
  %18 = tail call noundef signext i8 @_ZN5arrow3ipc8internal18GetMetadataVersionEN3org6apache5arrow7flatbuf15MetadataVersionE(i16 noundef signext %17)
  ret i8 %18
}